; Function Attrs: mustprogress uwtable
define hidden noundef zeroext i1 @_ZNK3sls7context14check_ackermanEP3app(ptr noundef nonnull readonly align 8 captures(none) dereferenceable(321) %0, ptr noundef readonly captures(none) %1) local_unnamed_addr #4 align 2 {
  %3 = getelementptr inbounds nuw i8, ptr %1, i64 24
  %4 = load i32, ptr %3, align 8, !tbaa !143
  %5 = icmp eq i32 %4, 0
  br i1 %5, label %_Z11is_uninterpPK9func_decl.exit.thread, label %6

6:                                                ; preds = %2
  %7 = getelementptr inbounds nuw i8, ptr %1, i64 16
  %8 = load ptr, ptr %7, align 8, !tbaa !138
  %9 = getelementptr inbounds nuw i8, ptr %8, i64 24
  %10 = load ptr, ptr %9, align 8, !tbaa !131
  %11 = icmp eq ptr %10, null
  br i1 %11, label %_Z11is_uninterpPK9func_decl.exit.thread, label %_Z11is_uninterpPK9func_decl.exit

_Z11is_uninterpPK9func_decl.exit:                 ; preds = %6
  %12 = load i32, ptr %10, align 8, !tbaa !134
  %13 = icmp eq i32 %12, -1
  br i1 %13, label %_Z11is_uninterpPK9func_decl.exit.thread, label %_ZNK4decl13get_family_idEv.exit

_ZNK4decl13get_family_idEv.exit:                  ; preds = %_Z11is_uninterpPK9func_decl.exit
  %14 = getelementptr inbounds nuw i8, ptr %0, i64 16
  %15 = load ptr, ptr %14, align 8, !tbaa !49
  %16 = icmp eq ptr %15, null
  br i1 %16, label %_Z11is_uninterpPK9func_decl.exit.thread, label %_ZNK6vectorIPN3sls6pluginELb0EjE4sizeEv.exit.i

_ZNK6vectorIPN3sls6pluginELb0EjE4sizeEv.exit.i:   ; preds = %_ZNK4decl13get_family_idEv.exit
  %17 = getelementptr inbounds i8, ptr %15, i64 -4
  %18 = load i32, ptr %17, align 4, !tbaa !58
  %19 = icmp ult i32 %12, %18
  br i1 %19, label %_ZNK17scoped_ptr_vectorIN3sls6pluginEE3getEjPS1_.exit, label %_Z11is_uninterpPK9func_decl.exit.thread

_ZNK17scoped_ptr_vectorIN3sls6pluginEE3getEjPS1_.exit: ; preds = %_ZNK6vectorIPN3sls6pluginELb0EjE4sizeEv.exit.i
  %20 = zext i32 %12 to i64
  %21 = getelementptr inbounds nuw ptr, ptr %15, i64 %20
  %22 = load ptr, ptr %21, align 8, !tbaa !70
  %.not = icmp eq ptr %22, null
  br i1 %.not, label %_Z11is_uninterpPK9func_decl.exit.thread, label %23

23:                                               ; preds = %_ZNK17scoped_ptr_vectorIN3sls6pluginEE3getEjPS1_.exit
  %24 = load ptr, ptr %22, align 8, !tbaa !3
  %25 = getelementptr inbounds nuw i8, ptr %24, i64 168
  %26 = load ptr, ptr %25, align 8
  %27 = tail call noundef zeroext i1 %26(ptr noundef nonnull align 8 dereferenceable(28) %22, ptr noundef nonnull %8)
  br label %_Z11is_uninterpPK9func_decl.exit.thread

_Z11is_uninterpPK9func_decl.exit.thread:          ; preds = %_ZNK4decl13get_family_idEv.exit, %_ZNK6vectorIPN3sls6pluginELb0EjE4sizeEv.exit.i, %6, %_Z11is_uninterpPK9func_decl.exit, %23, %_ZNK17scoped_ptr_vectorIN3sls6pluginEE3getEjPS1_.exit, %2
  %.0 = phi i1 [ false, %2 ], [ true, %_Z11is_uninterpPK9func_decl.exit ], [ true, %_ZNK17scoped_ptr_vectorIN3sls6pluginEE3getEjPS1_.exit ], [ %27, %23 ], [ true, %6 ], [ true, %_ZNK6vectorIPN3sls6pluginELb0EjE4sizeEv.exit.i ], [ true, %_ZNK4decl13get_family_idEv.exit ]
  ret i1 %.0
}